; Function Attrs: nounwind uwtable
define internal ptr @accel_new_interned_string_for_php(ptr noundef %0) #0 {
  %2 = getelementptr inbounds nuw i8, ptr %0, i64 8
  %3 = load i64, ptr %2, align 8, !tbaa !56
  %.not.i = icmp eq i64 %3, 0
  br i1 %.not.i, label %4, label %zend_string_hash_val.exit

4:                                                ; preds = %1
  %5 = tail call i64 @zend_string_hash_func(ptr noundef nonnull %0) #26
  br label %zend_string_hash_val.exit

zend_string_hash_val.exit:                        ; preds = %1, %4
  %6 = load i8, ptr @accel_globals, align 8, !tbaa !148, !range !37, !noundef !38
  %7 = trunc nuw i8 %6 to i1
  br i1 %7, label %8, label %accel_find_interned_string.exit

8:                                                ; preds = %zend_string_hash_val.exit
  %9 = load ptr, ptr @accel_shared_globals, align 8, !tbaa !28
  %10 = getelementptr inbounds nuw i8, ptr %9, i64 176
  %11 = load ptr, ptr %10, align 8, !tbaa !54
  %.not.i9 = icmp ult ptr %0, %11
  br i1 %.not.i9, label %16, label %12

12:                                               ; preds = %8
  %13 = getelementptr inbounds nuw i8, ptr %9, i64 184
  %14 = load ptr, ptr %13, align 8, !tbaa !55
  %15 = icmp ult ptr %0, %14
  br i1 %15, label %.loopexit, label %16

16:                                               ; preds = %8, %12
  %17 = load i64, ptr %2, align 8, !tbaa !56
  %.not.i.i = icmp eq i64 %17, 0
  br i1 %.not.i.i, label %18, label %zend_string_hash_val.exit.i

18:                                               ; preds = %16
  %19 = tail call i64 @zend_string_hash_func(ptr noundef nonnull %0) #26
  %.pre = load ptr, ptr @accel_shared_globals, align 8, !tbaa !28
  br label %zend_string_hash_val.exit.i

zend_string_hash_val.exit.i:                      ; preds = %18, %16
  %.pre25 = phi ptr [ %.pre, %18 ], [ %9, %16 ]
  %20 = phi i64 [ %19, %18 ], [ %17, %16 ]
  %21 = getelementptr inbounds nuw i8, ptr %.pre25, i64 168
  %22 = getelementptr inbounds nuw i8, ptr %.pre25, i64 208
  %23 = load i32, ptr %21, align 8, !tbaa !58
  %24 = zext i32 %23 to i64
  %25 = and i64 %20, %24
  %26 = getelementptr inbounds nuw i8, ptr %22, i64 %25
  %27 = load i32, ptr %26, align 4, !tbaa !59
  %.not18.i = icmp eq i32 %27, 0
  br i1 %.not18.i, label %accel_find_interned_string.exit, label %.preheader, !prof !53

.preheader:                                       ; preds = %zend_string_hash_val.exit.i
  %28 = getelementptr inbounds nuw i8, ptr %0, i64 16
  br label %29

29:                                               ; preds = %.preheader, %zend_string_equal_content.exit.i.thread
  %30 = phi ptr [ %44, %zend_string_equal_content.exit.i.thread ], [ %.pre25, %.preheader ]
  %.014.i = phi i32 [ %46, %zend_string_equal_content.exit.i.thread ], [ %27, %.preheader ]
  %31 = getelementptr inbounds nuw i8, ptr %30, i64 168
  %32 = zext i32 %.014.i to i64
  %33 = shl nuw nsw i64 %32, 3
  %34 = getelementptr inbounds nuw i8, ptr %31, i64 %33
  %35 = getelementptr inbounds nuw i8, ptr %34, i64 8
  %36 = load i64, ptr %35, align 8, !tbaa !56
  %37 = icmp eq i64 %36, %20
  br i1 %37, label %38, label %zend_string_equal_content.exit.i.thread, !prof !40

38:                                               ; preds = %29
  %39 = getelementptr inbounds nuw i8, ptr %34, i64 16
  %40 = load i64, ptr %39, align 8, !tbaa !60
  %41 = load i64, ptr %28, align 8, !tbaa !60
  %42 = icmp eq i64 %40, %41
  br i1 %42, label %zend_string_equal_content.exit.i, label %zend_string_equal_content.exit.i.thread

zend_string_equal_content.exit.i:                 ; preds = %38
  %43 = tail call zeroext i1 @zend_string_equal_val(ptr noundef nonnull %34, ptr noundef nonnull %0) #26
  %.pre24 = load ptr, ptr @accel_shared_globals, align 8, !tbaa !28
  br i1 %43, label %.loopexit, label %zend_string_equal_content.exit.i.thread

zend_string_equal_content.exit.i.thread:          ; preds = %38, %zend_string_equal_content.exit.i, %29
  %44 = phi ptr [ %30, %38 ], [ %.pre24, %zend_string_equal_content.exit.i ], [ %30, %29 ]
  %45 = getelementptr inbounds i8, ptr %34, i64 -4
  %46 = load i32, ptr %45, align 4, !tbaa !59
  %.not19.i = icmp eq i32 %46, 0
  br i1 %.not19.i, label %accel_find_interned_string.exit, label %29

.loopexit:                                        ; preds = %zend_string_equal_content.exit.i, %12
  %.0.i.ph = phi ptr [ %0, %12 ], [ %34, %zend_string_equal_content.exit.i ]
  %47 = getelementptr inbounds nuw i8, ptr %0, i64 4
  %48 = load i32, ptr %47, align 4, !tbaa !64
  %49 = and i32 %48, 64
  %.not.i8 = icmp eq i32 %49, 0
  br i1 %.not.i8, label %50, label %accel_find_interned_string.exit

50:                                               ; preds = %.loopexit
  %51 = load i32, ptr %0, align 4, !tbaa !63
  %52 = icmp ne i32 %51, 0
  tail call void @llvm.assume(i1 %52)
  %53 = add i32 %51, -1
  store i32 %53, ptr %0, align 4, !tbaa !63
  %54 = icmp eq i32 %53, 0
  br i1 %54, label %55, label %accel_find_interned_string.exit

55:                                               ; preds = %50
  %56 = and i32 %48, 128
  %.not5.i = icmp eq i32 %56, 0
  br i1 %.not5.i, label %58, label %57

57:                                               ; preds = %55
  tail call void @free(ptr noundef nonnull %0) #26
  br label %accel_find_interned_string.exit

58:                                               ; preds = %55
  tail call void @_efree(ptr noundef nonnull %0) #26
  br label %accel_find_interned_string.exit

accel_find_interned_string.exit:                  ; preds = %zend_string_equal_content.exit.i.thread, %zend_string_hash_val.exit, %zend_string_hash_val.exit.i, %.loopexit, %50, %57, %58
  %.1 = phi ptr [ %.0.i.ph, %58 ], [ %.0.i.ph, %57 ], [ %.0.i.ph, %50 ], [ %.0.i.ph, %.loopexit ], [ %0, %zend_string_hash_val.exit.i ], [ %0, %zend_string_hash_val.exit ], [ %0, %zend_string_equal_content.exit.i.thread ]
  ret ptr %.1
}